; Function Attrs: nofree norecurse nosync nounwind memory(argmem: readwrite) uwtable
define range(i32 -1094995529, 1) i32 @ff_opus_rc_dec_init(ptr noundef writeonly captures(none) initializes((0, 28)) %0, ptr noundef %1, i32 noundef %2) local_unnamed_addr #4 {
  %or.cond.i = icmp ugt i32 %2, 268435455
  %4 = shl nuw nsw i32 %2, 3
  %5 = select i1 %or.cond.i, i32 -8, i32 %4
  %or.cond.i.i = icmp ult i32 %5, 2147483135
  %6 = icmp ne ptr %1, null
  %or.cond3.i.i = and i1 %6, %or.cond.i.i
  %.018.i.i = select i1 %or.cond3.i.i, i32 %5, i32 0
  %.017.i.i = select i1 %or.cond.i.i, ptr %1, ptr null
  %7 = lshr exact i32 %.018.i.i, 3
  store ptr %.017.i.i, ptr %0, align 8, !tbaa !19
  %8 = getelementptr inbounds nuw i8, ptr %0, i64 20
  store i32 %.018.i.i, ptr %8, align 4, !tbaa !37
  %9 = add nuw nsw i32 %.018.i.i, 8
  %10 = getelementptr inbounds nuw i8, ptr %0, i64 24
  store i32 %9, ptr %10, align 8, !tbaa !18
  %11 = zext nneg i32 %7 to i64
  %12 = getelementptr inbounds nuw i8, ptr %.017.i.i, i64 %11
  %13 = getelementptr inbounds nuw i8, ptr %0, i64 8
  store ptr %12, ptr %13, align 8, !tbaa !38
  %14 = getelementptr inbounds nuw i8, ptr %0, i64 16
  store i32 0, ptr %14, align 8, !tbaa !20
  br i1 %or.cond3.i.i, label %.lr.ph, label %opus_rc_dec_normalize.exit

.lr.ph:                                           ; preds = %3
  %15 = getelementptr inbounds nuw i8, ptr %0, i64 56
  store i32 128, ptr %15, align 8, !tbaa !8
  %16 = load i32, ptr %1, align 1, !tbaa !22
  %17 = lshr i32 %16, 1
  %18 = and i32 %17, 127
  store i32 7, ptr %14, align 8, !tbaa !20
  %19 = xor i32 %18, 127
  %20 = getelementptr inbounds nuw i8, ptr %0, i64 60
  store i32 %19, ptr %20, align 4, !tbaa !15
  %21 = getelementptr inbounds nuw i8, ptr %0, i64 64
  store i32 9, ptr %21, align 8, !tbaa !21
  br label %22

22:                                               ; preds = %.lr.ph, %22
  %23 = phi i32 [ 9, %.lr.ph ], [ %41, %22 ]
  %24 = phi i32 [ 7, %.lr.ph ], [ %37, %22 ]
  %25 = phi i32 [ %19, %.lr.ph ], [ %39, %22 ]
  %26 = phi i32 [ 128, %.lr.ph ], [ %40, %22 ]
  %27 = shl i32 %25, 8
  %28 = lshr i32 %24, 3
  %29 = zext nneg i32 %28 to i64
  %30 = getelementptr inbounds nuw i8, ptr %1, i64 %29
  %31 = load i32, ptr %30, align 1, !tbaa !22
  %32 = tail call i32 @llvm.bswap.i32(i32 %31)
  %33 = and i32 %24, 7
  %34 = shl i32 %32, %33
  %35 = lshr i32 %34, 24
  %36 = add i32 %24, 8
  %37 = tail call i32 @llvm.umin.i32(i32 %9, i32 %36)
  store i32 %37, ptr %14, align 8, !tbaa !20
  %.masked.i = and i32 %27, 2147483392
  %38 = or disjoint i32 %35, %.masked.i
  %39 = xor i32 %38, 255
  store i32 %39, ptr %20, align 4, !tbaa !15
  %40 = shl nuw i32 %26, 8
  store i32 %40, ptr %15, align 8, !tbaa !8
  %41 = add i32 %23, 8
  store i32 %41, ptr %21, align 8, !tbaa !21
  %42 = icmp ult i32 %26, 32769
  br i1 %42, label %22, label %opus_rc_dec_normalize.exit, !llvm.loop !23

opus_rc_dec_normalize.exit:                       ; preds = %22, %3
  %.0 = phi i32 [ -1094995529, %3 ], [ 0, %22 ]
  ret i32 %.0
}